target datalayout = "e-m:e-p270:32:32-p271:32:32-p272:64:64-i64:64-i128:128-f80:128-n8:16:32:64-S128"
target triple = "x86_64-pc-linux-gnu"

%"struct.(anonymous namespace)::MyItem" = type { i32, ptr, i32 }
%struct.ImGuiTableSortSpecs = type <{ ptr, i32, i8, [3 x i8] }>
%struct.ImGuiTableColumnSortSpecs = type <{ i32, i16, i16, i8, [3 x i8] }>

@_ZN12_GLOBAL__N_16MyItem20s_current_sort_specsE = internal global ptr null, align 8

; Function Attrs: mustprogress nounwind uwtable
define internal noundef i32 @_ZN12_GLOBAL__N_16MyItem20CompareWithSortSpecsEPKvS2_(ptr noundef %0, ptr noundef %1) #3 align 2 {
  %3 = alloca i32, align 4
  %4 = alloca ptr, align 8
  %5 = alloca ptr, align 8
  %6 = alloca ptr, align 8
  %7 = alloca ptr, align 8
  %8 = alloca i32, align 4
  %9 = alloca i32, align 4
  %10 = alloca ptr, align 8
  %11 = alloca i32, align 4
  store ptr %0, ptr %4, align 8, !tbaa !43
  store ptr %1, ptr %5, align 8, !tbaa !43
  call void @llvm.lifetime.start.p0(i64 8, ptr %6) #2
  %12 = load ptr, ptr %4, align 8, !tbaa !43
  store ptr %12, ptr %6, align 8, !tbaa !326
  call void @llvm.lifetime.start.p0(i64 8, ptr %7) #2
  %13 = load ptr, ptr %5, align 8, !tbaa !43
  store ptr %13, ptr %7, align 8, !tbaa !326
  call void @llvm.lifetime.start.p0(i64 4, ptr %8) #2
  store i32 0, ptr %8, align 4, !tbaa !33
  br label %14

14:                                               ; preds = %88, %2
  %15 = load i32, ptr %8, align 4, !tbaa !33
  %16 = load ptr, ptr @_ZN12_GLOBAL__N_16MyItem20s_current_sort_specsE, align 8, !tbaa !332
  %17 = getelementptr inbounds nuw %struct.ImGuiTableSortSpecs, ptr %16, i32 0, i32 1
  %18 = load i32, ptr %17, align 8, !tbaa !557
  %19 = icmp slt i32 %15, %18
  br i1 %19, label %21, label %20

20:                                               ; preds = %14
  store i32 2, ptr %9, align 4
  br label %91

21:                                               ; preds = %14
  call void @llvm.lifetime.start.p0(i64 8, ptr %10) #2
  %22 = load ptr, ptr @_ZN12_GLOBAL__N_16MyItem20s_current_sort_specsE, align 8, !tbaa !332
  %23 = getelementptr inbounds nuw %struct.ImGuiTableSortSpecs, ptr %22, i32 0, i32 0
  %24 = load ptr, ptr %23, align 8, !tbaa !558
  %25 = load i32, ptr %8, align 4, !tbaa !33
  %26 = sext i32 %25 to i64
  %27 = getelementptr inbounds %struct.ImGuiTableColumnSortSpecs, ptr %24, i64 %26
  store ptr %27, ptr %10, align 8, !tbaa !559
  call void @llvm.lifetime.start.p0(i64 4, ptr %11) #2
  store i32 0, ptr %11, align 4, !tbaa !33
  %28 = load ptr, ptr %10, align 8, !tbaa !559
  %29 = getelementptr inbounds nuw %struct.ImGuiTableColumnSortSpecs, ptr %28, i32 0, i32 0
  %30 = load i32, ptr %29, align 4, !tbaa !560
  switch i32 %30, label %63 [
    i32 0, label %31
    i32 1, label %39
    i32 3, label %47
    i32 4, label %55
  ]

31:                                               ; preds = %21
  %32 = load ptr, ptr %6, align 8, !tbaa !326
  %33 = getelementptr inbounds nuw %"struct.(anonymous namespace)::MyItem", ptr %32, i32 0, i32 0
  %34 = load i32, ptr %33, align 8, !tbaa !327
  %35 = load ptr, ptr %7, align 8, !tbaa !326
  %36 = getelementptr inbounds nuw %"struct.(anonymous namespace)::MyItem", ptr %35, i32 0, i32 0
  %37 = load i32, ptr %36, align 8, !tbaa !327
  %38 = sub nsw i32 %34, %37
  store i32 %38, ptr %11, align 4, !tbaa !33
  br label %64

39:                                               ; preds = %21
  %40 = load ptr, ptr %6, align 8, !tbaa !326
  %41 = getelementptr inbounds nuw %"struct.(anonymous namespace)::MyItem", ptr %40, i32 0, i32 1
  %42 = load ptr, ptr %41, align 8, !tbaa !329
  %43 = load ptr, ptr %7, align 8, !tbaa !326
  %44 = getelementptr inbounds nuw %"struct.(anonymous namespace)::MyItem", ptr %43, i32 0, i32 1
  %45 = load ptr, ptr %44, align 8, !tbaa !329
  %46 = call i32 @strcmp(ptr noundef %42, ptr noundef %45) #19
  store i32 %46, ptr %11, align 4, !tbaa !33
  br label %64

47:                                               ; preds = %21
  %48 = load ptr, ptr %6, align 8, !tbaa !326
  %49 = getelementptr inbounds nuw %"struct.(anonymous namespace)::MyItem", ptr %48, i32 0, i32 2
  %50 = load i32, ptr %49, align 8, !tbaa !330
  %51 = load ptr, ptr %7, align 8, !tbaa !326
  %52 = getelementptr inbounds nuw %"struct.(anonymous namespace)::MyItem", ptr %51, i32 0, i32 2
  %53 = load i32, ptr %52, align 8, !tbaa !330
  %54 = sub nsw i32 %50, %53
  store i32 %54, ptr %11, align 4, !tbaa !33
  br label %64

55:                                               ; preds = %21
  %56 = load ptr, ptr %6, align 8, !tbaa !326
  %57 = getelementptr inbounds nuw %"struct.(anonymous namespace)::MyItem", ptr %56, i32 0, i32 1
  %58 = load ptr, ptr %57, align 8, !tbaa !329
  %59 = load ptr, ptr %7, align 8, !tbaa !326
  %60 = getelementptr inbounds nuw %"struct.(anonymous namespace)::MyItem", ptr %59, i32 0, i32 1
  %61 = load ptr, ptr %60, align 8, !tbaa !329
  %62 = call i32 @strcmp(ptr noundef %58, ptr noundef %61) #19
  store i32 %62, ptr %11, align 4, !tbaa !33
  br label %64

63:                                               ; preds = %21
  br label %64

64:                                               ; preds = %63, %55, %47, %39, %31
  %65 = load i32, ptr %11, align 4, !tbaa !33
  %66 = icmp sgt i32 %65, 0
  br i1 %66, label %67, label %74

67:                                               ; preds = %64
  %68 = load ptr, ptr %10, align 8, !tbaa !559
  %69 = getelementptr inbounds nuw %struct.ImGuiTableColumnSortSpecs, ptr %68, i32 0, i32 3
  %70 = load i8, ptr %69, align 4, !tbaa !563
  %71 = zext i8 %70 to i32
  %72 = icmp eq i32 %71, 1
  %73 = select i1 %72, i32 1, i32 -1
  store i32 %73, ptr %3, align 4
  store i32 1, ptr %9, align 4
  br label %85

74:                                               ; preds = %64
  %75 = load i32, ptr %11, align 4, !tbaa !33
  %76 = icmp slt i32 %75, 0
  br i1 %76, label %77, label %84

77:                                               ; preds = %74
  %78 = load ptr, ptr %10, align 8, !tbaa !559
  %79 = getelementptr inbounds nuw %struct.ImGuiTableColumnSortSpecs, ptr %78, i32 0, i32 3
  %80 = load i8, ptr %79, align 4, !tbaa !563
  %81 = zext i8 %80 to i32
  %82 = icmp eq i32 %81, 1
  %83 = select i1 %82, i32 -1, i32 1
  store i32 %83, ptr %3, align 4
  store i32 1, ptr %9, align 4
  br label %85

84:                                               ; preds = %74
  store i32 0, ptr %9, align 4
  br label %85

85:                                               ; preds = %84, %77, %67
  call void @llvm.lifetime.end.p0(i64 4, ptr %11) #2
  call void @llvm.lifetime.end.p0(i64 8, ptr %10) #2
  %86 = load i32, ptr %9, align 4
  switch i32 %86, label %91 [
    i32 0, label %87
  ]

87:                                               ; preds = %85
  br label %88

88:                                               ; preds = %87
  %89 = load i32, ptr %8, align 4, !tbaa !33
  %90 = add nsw i32 %89, 1
  store i32 %90, ptr %8, align 4, !tbaa !33
  br label %14, !llvm.loop !564

91:                                               ; preds = %85, %20
  call void @llvm.lifetime.end.p0(i64 4, ptr %8) #2
  %92 = load i32, ptr %9, align 4
  switch i32 %92, label %101 [
    i32 2, label %93
  ]

93:                                               ; preds = %91
  %94 = load ptr, ptr %6, align 8, !tbaa !326
  %95 = getelementptr inbounds nuw %"struct.(anonymous namespace)::MyItem", ptr %94, i32 0, i32 0
  %96 = load i32, ptr %95, align 8, !tbaa !327
  %97 = load ptr, ptr %7, align 8, !tbaa !326
  %98 = getelementptr inbounds nuw %"struct.(anonymous namespace)::MyItem", ptr %97, i32 0, i32 0
  %99 = load i32, ptr %98, align 8, !tbaa !327
  %100 = sub nsw i32 %96, %99
  store i32 %100, ptr %3, align 4
  store i32 1, ptr %9, align 4
  br label %101

101:                                              ; preds = %93, %91
  call void @llvm.lifetime.end.p0(i64 8, ptr %7) #2
  call void @llvm.lifetime.end.p0(i64 8, ptr %6) #2
  %102 = load i32, ptr %3, align 4
  ret i32 %102
}